; ModuleID = '27/270.cpp'
source_filename = "27/270.cpp"
target datalayout = "e-m:e-p270:32:32-p271:32:32-p272:64:64-i64:64-f80:128-n8:16:32:64-S128"
target triple = "x86_64-pc-linux-gnu"

%"class.std::ios_base::Init" = type { i8 }
%"class.std::basic_istream" = type { i32 (...)**, i64, %"class.std::basic_ios" }
%"class.std::basic_ios" = type { %"class.std::ios_base", %"class.std::basic_ostream"*, i8, i8, %"class.std::basic_streambuf"*, %"class.std::ctype"*, %"class.std::num_put"*, %"class.std::num_get"* }
%"class.std::ios_base" = type { i32 (...)**, i64, i64, i32, i32, i32, %"struct.std::ios_base::_Callback_list"*, %"struct.std::ios_base::_Words", [8 x %"struct.std::ios_base::_Words"], i32, %"struct.std::ios_base::_Words"*, %"class.std::locale" }
%"struct.std::ios_base::_Callback_list" = type { %"struct.std::ios_base::_Callback_list"*, void (i32, %"class.std::ios_base"*, i32)*, i32, i32 }
%"struct.std::ios_base::_Words" = type { i8*, i64 }
%"class.std::locale" = type { %"class.std::locale::_Impl"* }
%"class.std::locale::_Impl" = type { i32, %"class.std::locale::facet"**, i64, %"class.std::locale::facet"**, i8** }
%"class.std::locale::facet" = type <{ i32 (...)**, i32, [4 x i8] }>
%"class.std::basic_ostream" = type { i32 (...)**, %"class.std::basic_ios" }
%"class.std::basic_streambuf" = type { i32 (...)**, i8*, i8*, i8*, i8*, i8*, i8*, %"class.std::locale" }
%"class.std::ctype" = type <{ %"class.std::locale::facet.base", [4 x i8], %struct.__locale_struct*, i8, [7 x i8], i32*, i32*, i16*, i8, [256 x i8], [256 x i8], i8, [6 x i8] }>
%"class.std::locale::facet.base" = type <{ i32 (...)**, i32 }>
%struct.__locale_struct = type { [13 x %struct.__locale_data*], i16*, i32*, i32*, [13 x i8*] }
%struct.__locale_data = type opaque
%"class.std::num_put" = type { %"class.std::locale::facet.base", [4 x i8] }
%"class.std::num_get" = type { %"class.std::locale::facet.base", [4 x i8] }

@_ZStL8__ioinit = internal global %"class.std::ios_base::Init" zeroinitializer, align 1
@__dso_handle = external hidden global i8
@_ZSt3cin = external dso_local global %"class.std::basic_istream", align 8
@.str = private unnamed_addr constant [13 x i8] c"x1=x2=%.5lf\0A\00", align 1
@.str.1 = private unnamed_addr constant [19 x i8] c"x1=%.5lf;x2=%.5lf\0A\00", align 1
@.str.2 = private unnamed_addr constant [33 x i8] c"x1=%.5lf+%.5lfi;x2=%.5lf-%.5lfi\0A\00", align 1
@llvm.global_ctors = appending global [1 x { i32, void ()*, i8* }] [{ i32, void ()*, i8* } { i32 65535, void ()* @_GLOBAL__sub_I_270.cpp, i8* null }]

; Function Attrs: noinline uwtable
define internal void @__cxx_global_var_init() #0 section ".text.startup" {
  call void @_ZNSt8ios_base4InitC1Ev(%"class.std::ios_base::Init"* @_ZStL8__ioinit)
  %1 = call i32 @__cxa_atexit(void (i8*)* bitcast (void (%"class.std::ios_base::Init"*)* @_ZNSt8ios_base4InitD1Ev to void (i8*)*), i8* getelementptr inbounds (%"class.std::ios_base::Init", %"class.std::ios_base::Init"* @_ZStL8__ioinit, i32 0, i32 0), i8* @__dso_handle) #3
  ret void
}

declare dso_local void @_ZNSt8ios_base4InitC1Ev(%"class.std::ios_base::Init"*) unnamed_addr #1

; Function Attrs: nounwind
declare dso_local void @_ZNSt8ios_base4InitD1Ev(%"class.std::ios_base::Init"*) unnamed_addr #2

; Function Attrs: nounwind
declare dso_local i32 @__cxa_atexit(void (i8*)*, i8*, i8*) #3

; Function Attrs: noinline norecurse uwtable
define dso_local i32 @main() #4 {
  %1 = alloca i32, align 4
  %2 = alloca double, align 8
  %3 = alloca double, align 8
  %4 = alloca double, align 8
  %5 = alloca double, align 8
  %6 = alloca double, align 8
  %7 = alloca double, align 8
  %8 = alloca double, align 8
  %9 = alloca double, align 8
  %10 = alloca double, align 8
  %11 = alloca double, align 8
  store i32 0, i32* %1, align 4
  %12 = call dereferenceable(280) %"class.std::basic_istream"* @_ZNSirsERd(%"class.std::basic_istream"* @_ZSt3cin, double* dereferenceable(8) %2)
  store double 1.000000e+00, double* %8, align 8
  br label %13

13:                                               ; preds = %90, %0
  %14 = load double, double* %8, align 8
  %15 = load double, double* %2, align 8
  %16 = fcmp ole double %14, %15
  br i1 %16, label %17, label %93

17:                                               ; preds = %13
  %18 = call dereferenceable(280) %"class.std::basic_istream"* @_ZNSirsERd(%"class.std::basic_istream"* @_ZSt3cin, double* dereferenceable(8) %5)
  %19 = call dereferenceable(280) %"class.std::basic_istream"* @_ZNSirsERd(%"class.std::basic_istream"* %18, double* dereferenceable(8) %6)
  %20 = call dereferenceable(280) %"class.std::basic_istream"* @_ZNSirsERd(%"class.std::basic_istream"* %19, double* dereferenceable(8) %7)
  %21 = load double, double* %6, align 8
  %22 = load double, double* %6, align 8
  %23 = fmul double %21, %22
  %24 = load double, double* %5, align 8
  %25 = fmul double 4.000000e+00, %24
  %26 = load double, double* %7, align 8
  %27 = fmul double %25, %26
  %28 = fsub double %23, %27
  store double %28, double* %9, align 8
  %29 = load double, double* %9, align 8
  %30 = fcmp oeq double %29, 0.000000e+00
  br i1 %30, label %31, label %39

31:                                               ; preds = %17
  %32 = load double, double* %6, align 8
  %33 = fneg double %32
  %34 = load double, double* %5, align 8
  %35 = fmul double 2.000000e+00, %34
  %36 = fdiv double %33, %35
  store double %36, double* %4, align 8
  store double %36, double* %3, align 8
  %37 = load double, double* %3, align 8
  %38 = call i32 (i8*, ...) @printf(i8* getelementptr inbounds ([13 x i8], [13 x i8]* @.str, i64 0, i64 0), double %37)
  br label %89

39:                                               ; preds = %17
  %40 = load double, double* %9, align 8
  %41 = fcmp ogt double %40, 0.000000e+00
  br i1 %41, label %42, label %62

42:                                               ; preds = %39
  %43 = load double, double* %6, align 8
  %44 = fneg double %43
  %45 = load double, double* %9, align 8
  %46 = call double @sqrt(double %45) #3
  %47 = fadd double %44, %46
  %48 = load double, double* %5, align 8
  %49 = fmul double 2.000000e+00, %48
  %50 = fdiv double %47, %49
  store double %50, double* %3, align 8
  %51 = load double, double* %6, align 8
  %52 = fneg double %51
  %53 = load double, double* %9, align 8
  %54 = call double @sqrt(double %53) #3
  %55 = fsub double %52, %54
  %56 = load double, double* %5, align 8
  %57 = fmul double 2.000000e+00, %56
  %58 = fdiv double %55, %57
  store double %58, double* %4, align 8
  %59 = load double, double* %3, align 8
  %60 = load double, double* %4, align 8
  %61 = call i32 (i8*, ...) @printf(i8* getelementptr inbounds ([19 x i8], [19 x i8]* @.str.1, i64 0, i64 0), double %59, double %60)
  br label %88

62:                                               ; preds = %39
  %63 = load double, double* %9, align 8
  %64 = fcmp olt double %63, 0.000000e+00
  br i1 %64, label %65, label %87

65:                                               ; preds = %62
  %66 = load double, double* %9, align 8
  %67 = fneg double %66
  store double %67, double* %9, align 8
  %68 = load double, double* %9, align 8
  %69 = call double @sqrt(double %68) #3
  %70 = load double, double* %5, align 8
  %71 = fmul double 2.000000e+00, %70
  %72 = fdiv double %69, %71
  store double %72, double* %10, align 8
  %73 = load double, double* %6, align 8
  %74 = fneg double %73
  %75 = load double, double* %5, align 8
  %76 = fmul double 2.000000e+00, %75
  %77 = fdiv double %74, %76
  store double %77, double* %11, align 8
  %78 = load double, double* %11, align 8
  %79 = fcmp oeq double %78, 0.000000e+00
  br i1 %79, label %80, label %81

80:                                               ; preds = %65
  store double 0.000000e+00, double* %11, align 8
  br label %81

81:                                               ; preds = %80, %65
  %82 = load double, double* %11, align 8
  %83 = load double, double* %10, align 8
  %84 = load double, double* %11, align 8
  %85 = load double, double* %10, align 8
  %86 = call i32 (i8*, ...) @printf(i8* getelementptr inbounds ([33 x i8], [33 x i8]* @.str.2, i64 0, i64 0), double %82, double %83, double %84, double %85)
  br label %87

87:                                               ; preds = %81, %62
  br label %88

88:                                               ; preds = %87, %42
  br label %89

89:                                               ; preds = %88, %31
  br label %90

90:                                               ; preds = %89
  %91 = load double, double* %8, align 8
  %92 = fadd double %91, 1.000000e+00
  store double %92, double* %8, align 8
  br label %13

93:                                               ; preds = %13
  ret i32 0
}

declare dso_local dereferenceable(280) %"class.std::basic_istream"* @_ZNSirsERd(%"class.std::basic_istream"*, double* dereferenceable(8)) #1

declare dso_local i32 @printf(i8*, ...) #1

; Function Attrs: nounwind
declare dso_local double @sqrt(double) #2

; Function Attrs: noinline uwtable
define internal void @_GLOBAL__sub_I_270.cpp() #0 section ".text.startup" {
  call void @__cxx_global_var_init()
  ret void
}


!llvm.module.flags = !{!0}
!llvm.ident = !{!1}

!0 = !{i32 1, !"wchar_size", i32 4}
!1 = !{!"clang version 10.0.0-4ubuntu1 "}
